target datalayout = "e-m:e-p270:32:32-p271:32:32-p272:64:64-i64:64-i128:128-f80:128-n8:16:32:64-S128"
target triple = "x86_64-unknown-linux-gnu"

%"class.FLAC::Metadata::Prototype" = type <{ ptr, ptr, i8, [7 x i8] }>

; Function Attrs: mustprogress sspstrong uwtable
define noundef nonnull align 8 dereferenceable(17) ptr @_ZN4FLAC8Metadata9Prototype13assign_objectEP20FLAC__StreamMetadatab(ptr noundef nonnull align 8 dereferenceable(17) %this, ptr noundef %object, i1 noundef zeroext %copy) #0 align 2 {
entry:
  %this.addr = alloca ptr, align 8
  %object.addr = alloca ptr, align 8
  %copy.addr = alloca i8, align 1
  store ptr %this, ptr %this.addr, align 8
  store ptr %object, ptr %object.addr, align 8
  %frombool = zext i1 %copy to i8
  store i8 %frombool, ptr %copy.addr, align 1
  %this1 = load ptr, ptr %this.addr, align 8
  %vtable = load ptr, ptr %this1, align 8
  %vfn = getelementptr inbounds ptr, ptr %vtable, i64 0
  %0 = load ptr, ptr %vfn, align 8
  call void %0(ptr noundef nonnull align 8 dereferenceable(17) %this1)
  %1 = load i8, ptr %copy.addr, align 1
  %tobool = trunc i8 %1 to i1
  br i1 %tobool, label %cond.true, label %cond.false

cond.true:                                        ; preds = %entry
  %2 = load ptr, ptr %object.addr, align 8
  %call = call ptr @FLAC__metadata_object_clone(ptr noundef %2)
  br label %cond.end

cond.false:                                       ; preds = %entry
  %3 = load ptr, ptr %object.addr, align 8
  br label %cond.end

cond.end:                                         ; preds = %cond.false, %cond.true
  %cond = phi ptr [ %call, %cond.true ], [ %3, %cond.false ]
  %object_ = getelementptr inbounds %"class.FLAC::Metadata::Prototype", ptr %this1, i32 0, i32 1
  store ptr %cond, ptr %object_, align 8
  %is_reference_ = getelementptr inbounds %"class.FLAC::Metadata::Prototype", ptr %this1, i32 0, i32 2
  store i8 0, ptr %is_reference_, align 8
  ret ptr %this1
}

; Function Attrs: mustprogress sspstrong uwtable
define linkonce_odr noundef nonnull align 8 dereferenceable(17) ptr @_ZN4FLAC8Metadata7Picture6assignEP20FLAC__StreamMetadatab(ptr noundef nonnull align 8 dereferenceable(17) %this, ptr noundef %object, i1 noundef zeroext %copy) #0 comdat align 2 {
entry:
  %this.addr = alloca ptr, align 8
  %object.addr = alloca ptr, align 8
  %copy.addr = alloca i8, align 1
  store ptr %this, ptr %this.addr, align 8
  store ptr %object, ptr %object.addr, align 8
  %frombool = zext i1 %copy to i8
  store i8 %frombool, ptr %copy.addr, align 1
  %this1 = load ptr, ptr %this.addr, align 8
  %0 = load ptr, ptr %object.addr, align 8
  %1 = load i8, ptr %copy.addr, align 1
  %tobool = trunc i8 %1 to i1
  %call = call noundef nonnull align 8 dereferenceable(17) ptr @_ZN4FLAC8Metadata9Prototype13assign_objectEP20FLAC__StreamMetadatab(ptr noundef nonnull align 8 dereferenceable(17) %this1, ptr noundef %0, i1 noundef zeroext %tobool)
  ret ptr %this1
}

; Function Attrs: mustprogress sspstrong uwtable
define noundef zeroext i1 @_ZN4FLAC8Metadata11get_pictureEPKcRNS0_7PictureE33FLAC__StreamMetadata_Picture_TypeS2_PKhjjjj(ptr noundef %filename, ptr noundef nonnull align 8 dereferenceable(17) %picture, i32 noundef %type, ptr noundef %mime_type, ptr noundef %description, i32 noundef %max_width, i32 noundef %max_height, i32 noundef %max_depth, i32 noundef %max_colors) #0 {
entry:
  %retval = alloca i1, align 1
  %filename.addr = alloca ptr, align 8
  %picture.addr = alloca ptr, align 8
  %type.addr = alloca i32, align 4
  %mime_type.addr = alloca ptr, align 8
  %description.addr = alloca ptr, align 8
  %max_width.addr = alloca i32, align 4
  %max_height.addr = alloca i32, align 4
  %max_depth.addr = alloca i32, align 4
  %max_colors.addr = alloca i32, align 4
  %object = alloca ptr, align 8
  store ptr %filename, ptr %filename.addr, align 8
  store ptr %picture, ptr %picture.addr, align 8
  store i32 %type, ptr %type.addr, align 4
  store ptr %mime_type, ptr %mime_type.addr, align 8
  store ptr %description, ptr %description.addr, align 8
  store i32 %max_width, ptr %max_width.addr, align 4
  store i32 %max_height, ptr %max_height.addr, align 4
  store i32 %max_depth, ptr %max_depth.addr, align 4
  store i32 %max_colors, ptr %max_colors.addr, align 4
  %0 = load ptr, ptr %filename.addr, align 8
  %1 = load i32, ptr %type.addr, align 4
  %2 = load ptr, ptr %mime_type.addr, align 8
  %3 = load ptr, ptr %description.addr, align 8
  %4 = load i32, ptr %max_width.addr, align 4
  %5 = load i32, ptr %max_height.addr, align 4
  %6 = load i32, ptr %max_depth.addr, align 4
  %7 = load i32, ptr %max_colors.addr, align 4
  %call = call i32 @FLAC__metadata_get_picture(ptr noundef %0, ptr noundef %object, i32 noundef %1, ptr noundef %2, ptr noundef %3, i32 noundef %4, i32 noundef %5, i32 noundef %6, i32 noundef %7)
  %tobool = icmp ne i32 %call, 0
  br i1 %tobool, label %if.then, label %if.else

if.then:                                          ; preds = %entry
  %8 = load ptr, ptr %picture.addr, align 8
  %9 = load ptr, ptr %object, align 8
  %call1 = call noundef nonnull align 8 dereferenceable(17) ptr @_ZN4FLAC8Metadata7Picture6assignEP20FLAC__StreamMetadatab(ptr noundef nonnull align 8 dereferenceable(17) %8, ptr noundef %9, i1 noundef zeroext false)
  store i1 true, ptr %retval, align 1
  br label %return

if.else:                                          ; preds = %entry
  store i1 false, ptr %retval, align 1
  br label %return

return:                                           ; preds = %if.else, %if.then
  %10 = load i1, ptr %retval, align 1
  ret i1 %10
}