; Function Attrs: mustprogress sspstrong uwtable
define noundef zeroext i1 @_ZN4FLAC8Metadata11get_pictureEPKcRNS0_7PictureE33FLAC__StreamMetadata_Picture_TypeS2_PKhjjjj(ptr noundef %filename, ptr noundef nonnull align 8 dereferenceable(17) %picture, i32 noundef %type, ptr noundef %mime_type, ptr noundef %description, i32 noundef %max_width, i32 noundef %max_height, i32 noundef %max_depth, i32 noundef %max_colors) local_unnamed_addr #0 {
entry:
  %object = alloca ptr, align 8
  %call = call i32 @FLAC__metadata_get_picture(ptr noundef %filename, ptr noundef nonnull %object, i32 noundef %type, ptr noundef %mime_type, ptr noundef %description, i32 noundef %max_width, i32 noundef %max_height, i32 noundef %max_depth, i32 noundef %max_colors)
  %tobool.not = icmp ne i32 %call, 0
  br i1 %tobool.not, label %if.then, label %return

if.then:                                          ; preds = %entry
  %0 = load ptr, ptr %object, align 8
  %vtable.i.i = load ptr, ptr %picture, align 8
  %1 = load ptr, ptr %vtable.i.i, align 8
  call void %1(ptr noundef nonnull align 8 dereferenceable(17) %picture)
  %object_.i.i = getelementptr inbounds i8, ptr %picture, i64 8
  store ptr %0, ptr %object_.i.i, align 8
  %is_reference_.i.i = getelementptr inbounds i8, ptr %picture, i64 16
  store i8 0, ptr %is_reference_.i.i, align 8
  br label %return

return:                                           ; preds = %entry, %if.then
  ret i1 %tobool.not
}